; Function Attrs: nounwind uwtable
define hidden void @large_dalloc_finish(ptr noundef %tsdn, ptr noundef %edata) local_unnamed_addr #0 {
entry:
  %deferred_work_generated.i = alloca i8, align 1
  %edata.val.i = load i64, ptr %edata, align 8
  %conv.i.i = and i64 %edata.val.i, 4095
  %arrayidx.i = getelementptr inbounds [0 x %struct.atomic_p_t], ptr @arenas, i64 0, i64 %conv.i.i
  %0 = load atomic i64, ptr %arrayidx.i monotonic, align 8
  %1 = inttoptr i64 %0 to ptr
  call void @llvm.lifetime.start.p0(i64 1, ptr nonnull %deferred_work_generated.i)
  store i8 0, ptr %deferred_work_generated.i, align 1
  %pa_shard.i = getelementptr inbounds i8, ptr %1, i64 10648
  call void @pa_dalloc(ptr noundef %tsdn, ptr noundef nonnull %pa_shard.i, ptr noundef nonnull %edata, ptr noundef nonnull %deferred_work_generated.i) #10
  %2 = load i8, ptr %deferred_work_generated.i, align 1
  %3 = and i8 %2, 1
  %tobool.not.i = icmp eq i8 %3, 0
  br i1 %tobool.not.i, label %large_dalloc_finish_impl.exit, label %if.then.i

if.then.i:                                        ; preds = %entry
  call void @arena_handle_deferred_work(ptr noundef %tsdn, ptr noundef %1) #10
  br label %large_dalloc_finish_impl.exit

large_dalloc_finish_impl.exit:                    ; preds = %entry, %if.then.i
  call void @llvm.lifetime.end.p0(i64 1, ptr nonnull %deferred_work_generated.i)
  ret void
}